AX51 MACRO ASSEMBLER  EFM8UB1_BLINKY                                                        04/22/20 09:50:33 PAGE     1


MACRO ASSEMBLER AX51 V3.15.3.0
OBJECT MODULE PLACED IN .\src\EFM8UB1_Blinky.OBJ
ASSEMBLER INVOKED BY: Z:\Applications\Simplicity Studio.app\Contents\Eclipse\developer\toolchains\keil_8051\9.60\BIN\AX5
                      1.exe /Users/clfilho/SimplicityStudio/March20/LEDStrip_UB1/Keil 8051 v9.60.0 - Debug/src/EFM8UB1_B
                      linky.SRC ERRORPRINT SET(SMALL,SILABS_STARTUP=1) DEBUG MACRO NOMOD51 INCDIR(/Applications/Simplici
                      ty Studio.app/Contents/Eclipse/developer/sdks/8051/v4.1.7//Device/shared/si8051Base;/Applications/
                      Simplicity Studio.app/Contents/Eclipse/developer/sdks/8051/v4.1.7//Device/EFM8UB1/inc) PRINT(.\src
                      \EFM8UB1_Blinky.lst) COND SYMBOLS PAGEWIDTH(120) PAGELENGTH(65) OBJECT(.\src\EFM8UB1_Blinky.OBJ) 

LOC    OBJ             LINE     SOURCE

                          1     ; src/EFM8UB1_Blinky.SRC generated from: /Users/clfilho/SimplicityStudio/March20/LEDStri
                               p_UB1/src/EFM8UB1_Blinky.c
                          2     ; COMPILER INVOKED BY:
                          3     ;        Z:\Applications\Simplicity Studio.app\Contents\Eclipse\developer\toolchains\kei
                               l_8051\9.60\BIN\C51.exe /Users/clfilho/SimplicityStudio/March20/LEDStrip_UB1/src/EFM8UB1_
                               Blinky.c OMF2 SMALL DEBUG OBJECTEXTEND ROM(LARGE) WARNINGLEVEL(0) FLOATFUZZY(3) OPTIMIZE(
                               0,SPEED) INTVECTOR(0X0000) BROWSE ORDER INTPROMOTE SRC(src/EFM8UB1_Blinky.SRC) INCDIR(/Us
                               ers/clfilho/SimplicityStudio/March20/LEDStrip_UB1/inc;/Applications/Simplicity Studio.app
                               /Contents/Eclipse/developer/sdks/8051/v4.1.7//Device/shared/si8051Base;/Applications/Simp
                               licity Studio.app/Contents/Eclipse/developer/sdks/8051/v4.1.7//Device/EFM8UB1/inc) NOAREG
                               S PREPRINT(.\src/EFM8UB1_Blinky.I) PRINT(.\src/EFM8UB1_Blinky.lst) COND SYMBOLS LISTINCLU
                               DE CODE PAGEWIDTH(120) PAGELENGTH(65)
                          4     
                          5     $nomod51 
                          6     
                          7     NAME    EFM8UB1_BLINKY
                          8     
 00E0                     9     ACC     DATA    0E0H
 00B3                    10     ADC0AC  DATA    0B3H
 00BC                    11     ADC0CF  DATA    0BCH
 00E8                    12     ADC0CN0 DATA    0E8H
 00B2                    13     ADC0CN1 DATA    0B2H
 00C4                    14     ADC0GTH DATA    0C4H
 00C3                    15     ADC0GTL DATA    0C3H
 00BE                    16     ADC0H   DATA    0BEH
 00BD                    17     ADC0L   DATA    0BDH
 00C6                    18     ADC0LTH DATA    0C6H
 00C5                    19     ADC0LTL DATA    0C5H
 00BB                    20     ADC0MX  DATA    0BBH
 00DF                    21     ADC0PWR DATA    0DFH
 00B9                    22     ADC0TK  DATA    0B9H
 00F0                    23     B       DATA    0F0H
 008E                    24     CKCON0  DATA    08EH
 00A6                    25     CKCON1  DATA    0A6H
 00A9                    26     CLKSEL  DATA    0A9H
 009B                    27     CMP0CN0 DATA    09BH
 0099                    28     CMP0CN1 DATA    099H
 009D                    29     CMP0MD  DATA    09DH
 009F                    30     CMP0MX  DATA    09FH
 00BF                    31     CMP1CN0 DATA    0BFH
 00AC                    32     CMP1CN1 DATA    0ACH
 00AB                    33     CMP1MD  DATA    0ABH
 00AA                    34     CMP1MX  DATA    0AAH
 00CE                    35     CRC0CN0 DATA    0CEH
 0086                    36     CRC0CN1 DATA    086H
 00D3                    37     CRC0CNT DATA    0D3H
 00DE                    38     CRC0DAT DATA    0DEH
 00CF                    39     CRC0FLIP        DATA    0CFH
 00DD                    40     CRC0IN  DATA    0DDH
 00D2                    41     CRC0ST  DATA    0D2H
AX51 MACRO ASSEMBLER  EFM8UB1_BLINKY                                                        04/22/20 09:50:33 PAGE     2

 00AD                    42     DERIVID DATA    0ADH
 00B5                    43     DEVICEID        DATA    0B5H
 0083                    44     DPH     DATA    083H
 0082                    45     DPL     DATA    082H
 00E6                    46     EIE1    DATA    0E6H
 00CE                    47     EIE2    DATA    0CEH
 00F3                    48     EIP1    DATA    0F3H
 00F5                    49     EIP1H   DATA    0F5H
 00F4                    50     EIP2    DATA    0F4H
 00F6                    51     EIP2H   DATA    0F6H
 00E7                    52     EMI0CN  DATA    0E7H
 00B7                    53     FLKEY   DATA    0B7H
 00C7                    54     HFO0CAL DATA    0C7H
 00D6                    55     HFO1CAL DATA    0D6H
 00EF                    56     HFOCN   DATA    0EFH
 00BA                    57     I2C0CN0 DATA    0BAH
 00BC                    58     I2C0DIN DATA    0BCH
 00BB                    59     I2C0DOUT        DATA    0BBH
 00AD                    60     I2C0FCN0        DATA    0ADH
 00AB                    61     I2C0FCN1        DATA    0ABH
 00F5                    62     I2C0FCT DATA    0F5H
 00BD                    63     I2C0SLAD        DATA    0BDH
 00B9                    64     I2C0STAT        DATA    0B9H
 00A8                    65     IE      DATA    0A8H
 00B8                    66     IP      DATA    0B8H
 00F2                    67     IPH     DATA    0F2H
 00E4                    68     IT01CF  DATA    0E4H
 00B1                    69     LFO0CN  DATA    0B1H
 0080                    70     P0      DATA    080H
 00FE                    71     P0MASK  DATA    0FEH
 00FD                    72     P0MAT   DATA    0FDH
 00F1                    73     P0MDIN  DATA    0F1H
 00A4                    74     P0MDOUT DATA    0A4H
 00D4                    75     P0SKIP  DATA    0D4H
 0090                    76     P1      DATA    090H
 00EE                    77     P1MASK  DATA    0EEH
 00ED                    78     P1MAT   DATA    0EDH
 00F2                    79     P1MDIN  DATA    0F2H
 00A5                    80     P1MDOUT DATA    0A5H
 00D5                    81     P1SKIP  DATA    0D5H
 00A0                    82     P2      DATA    0A0H
 00FC                    83     P2MASK  DATA    0FCH
 00FB                    84     P2MAT   DATA    0FBH
 00F3                    85     P2MDIN  DATA    0F3H
 00A6                    86     P2MDOUT DATA    0A6H
 00CC                    87     P2SKIP  DATA    0CCH
 00B0                    88     P3      DATA    0B0H
 00F4                    89     P3MDIN  DATA    0F4H
 009C                    90     P3MDOUT DATA    09CH
 009E                    91     PCA0CENT        DATA    09EH
 009C                    92     PCA0CLR DATA    09CH
 00D8                    93     PCA0CN0 DATA    0D8H
 00FC                    94     PCA0CPH0        DATA    0FCH
 00EA                    95     PCA0CPH1        DATA    0EAH
 00EC                    96     PCA0CPH2        DATA    0ECH
 00FB                    97     PCA0CPL0        DATA    0FBH
 00E9                    98     PCA0CPL1        DATA    0E9H
 00EB                    99     PCA0CPL2        DATA    0EBH
 00DA                   100     PCA0CPM0        DATA    0DAH
 00DB                   101     PCA0CPM1        DATA    0DBH
 00DC                   102     PCA0CPM2        DATA    0DCH
 00FA                   103     PCA0H   DATA    0FAH
 00F9                   104     PCA0L   DATA    0F9H
AX51 MACRO ASSEMBLER  EFM8UB1_BLINKY                                                        04/22/20 09:50:33 PAGE     3

 00D9                   105     PCA0MD  DATA    0D9H
 0096                   106     PCA0POL DATA    096H
 00F7                   107     PCA0PWM DATA    0F7H
 0087                   108     PCON0   DATA    087H
 009A                   109     PCON1   DATA    09AH
 00C1                   110     PFE0CN  DATA    0C1H
 00F6                   111     PRTDRV  DATA    0F6H
 008F                   112     PSCTL   DATA    08FH
 00D0                   113     PSW     DATA    0D0H
 00D1                   114     REF0CN  DATA    0D1H
 00C9                   115     REG0CN  DATA    0C9H
 00C6                   116     REG1CN  DATA    0C6H
 00B6                   117     REVID   DATA    0B6H
 00EF                   118     RSTSRC  DATA    0EFH
 0094                   119     SBCON1  DATA    094H
 0096                   120     SBRLH1  DATA    096H
 0095                   121     SBRLL1  DATA    095H
 0099                   122     SBUF0   DATA    099H
 0092                   123     SBUF1   DATA    092H
 0098                   124     SCON0   DATA    098H
 00C8                   125     SCON1   DATA    0C8H
 00A7                   126     SFRPAGE DATA    0A7H
 00CF                   127     SFRPGCN DATA    0CFH
 00D7                   128     SFRSTACK        DATA    0D7H
 00D6                   129     SMB0ADM DATA    0D6H
 00D7                   130     SMB0ADR DATA    0D7H
 00C1                   131     SMB0CF  DATA    0C1H
 00C0                   132     SMB0CN0 DATA    0C0H
 00C2                   133     SMB0DAT DATA    0C2H
 00C3                   134     SMB0FCN0        DATA    0C3H
 00C4                   135     SMB0FCN1        DATA    0C4H
 00EF                   136     SMB0FCT DATA    0EFH
 00C5                   137     SMB0RXLN        DATA    0C5H
 00AC                   138     SMB0TC  DATA    0ACH
 0093                   139     SMOD1   DATA    093H
 0081                   140     SP      DATA    081H
 00A1                   141     SPI0CFG DATA    0A1H
 00A2                   142     SPI0CKR DATA    0A2H
 00F8                   143     SPI0CN0 DATA    0F8H
 00A3                   144     SPI0DAT DATA    0A3H
 009A                   145     SPI0FCN0        DATA    09AH
 009B                   146     SPI0FCN1        DATA    09BH
 00F7                   147     SPI0FCT DATA    0F7H
 0088                   148     TCON    DATA    088H
 008C                   149     TH0     DATA    08CH
 008D                   150     TH1     DATA    08DH
 008A                   151     TL0     DATA    08AH
 008B                   152     TL1     DATA    08BH
 0089                   153     TMOD    DATA    089H
 00C8                   154     TMR2CN0 DATA    0C8H
 00FD                   155     TMR2CN1 DATA    0FDH
 00CD                   156     TMR2H   DATA    0CDH
 00CC                   157     TMR2L   DATA    0CCH
 00CB                   158     TMR2RLH DATA    0CBH
 00CA                   159     TMR2RLL DATA    0CAH
 0091                   160     TMR3CN0 DATA    091H
 00FE                   161     TMR3CN1 DATA    0FEH
 0095                   162     TMR3H   DATA    095H
 0094                   163     TMR3L   DATA    094H
 0093                   164     TMR3RLH DATA    093H
 0092                   165     TMR3RLL DATA    092H
 0098                   166     TMR4CN0 DATA    098H
 00FF                   167     TMR4CN1 DATA    0FFH
AX51 MACRO ASSEMBLER  EFM8UB1_BLINKY                                                        04/22/20 09:50:33 PAGE     4

 00A5                   168     TMR4H   DATA    0A5H
 00A4                   169     TMR4L   DATA    0A4H
 00A3                   170     TMR4RLH DATA    0A3H
 00A2                   171     TMR4RLL DATA    0A2H
 009D                   172     UART1FCN0       DATA    09DH
 00D8                   173     UART1FCN1       DATA    0D8H
 00FA                   174     UART1FCT        DATA    0FAH
 009E                   175     UART1LIN        DATA    09EH
 00AE                   176     USB0ADR DATA    0AEH
 00B2                   177     USB0AEC DATA    0B2H
 00B6                   178     USB0CDCF        DATA    0B6H
 00BE                   179     USB0CDCN        DATA    0BEH
 00BF                   180     USB0CDSTA       DATA    0BFH
 00B5                   181     USB0CF  DATA    0B5H
 00AF                   182     USB0DAT DATA    0AFH
 00B3                   183     USB0XCN DATA    0B3H
 00FF                   184     VDM0CN  DATA    0FFH
 0097                   185     WDTCN   DATA    097H
 00E1                   186     XBR0    DATA    0E1H
 00E2                   187     XBR1    DATA    0E2H
 00E3                   188     XBR2    DATA    0E3H
 00C3                   189     ADC0GT  DATA    0C3H
 00BD                   190     ADC0    DATA    0BDH
 00C5                   191     ADC0LT  DATA    0C5H
 0082                   192     DP      DATA    082H
 00FB                   193     PCA0CP0 DATA    0FBH
 00E9                   194     PCA0CP1 DATA    0E9H
 00EB                   195     PCA0CP2 DATA    0EBH
 00F9                   196     PCA0    DATA    0F9H
 0095                   197     SBRL1   DATA    095H
 00CC                   198     TMR2    DATA    0CCH
 00CA                   199     TMR2RL  DATA    0CAH
 0094                   200     TMR3    DATA    094H
 0092                   201     TMR3RL  DATA    092H
 00A4                   202     TMR4    DATA    0A4H
 00A2                   203     TMR4RL  DATA    0A2H
 00E0.0                 204     ACC_ACC0        BIT     0E0H.0
 00E0.1                 205     ACC_ACC1        BIT     0E0H.1
 00E0.2                 206     ACC_ACC2        BIT     0E0H.2
 00E0.3                 207     ACC_ACC3        BIT     0E0H.3
 00E0.4                 208     ACC_ACC4        BIT     0E0H.4
 00E0.5                 209     ACC_ACC5        BIT     0E0H.5
 00E0.6                 210     ACC_ACC6        BIT     0E0H.6
 00E0.7                 211     ACC_ACC7        BIT     0E0H.7
 00E8.0                 212     ADC0CN0_ADCM0   BIT     0E8H.0
 00E8.1                 213     ADC0CN0_ADCM1   BIT     0E8H.1
 00E8.2                 214     ADC0CN0_ADCM2   BIT     0E8H.2
 00E8.3                 215     ADC0CN0_ADWINT  BIT     0E8H.3
 00E8.4                 216     ADC0CN0_ADBUSY  BIT     0E8H.4
 00E8.5                 217     ADC0CN0_ADINT   BIT     0E8H.5
 00E8.6                 218     ADC0CN0_ADBMEN  BIT     0E8H.6
 00E8.7                 219     ADC0CN0_ADEN    BIT     0E8H.7
 00F0.0                 220     B_B0    BIT     0F0H.0
 00F0.1                 221     B_B1    BIT     0F0H.1
 00F0.2                 222     B_B2    BIT     0F0H.2
 00F0.3                 223     B_B3    BIT     0F0H.3
 00F0.4                 224     B_B4    BIT     0F0H.4
 00F0.5                 225     B_B5    BIT     0F0H.5
 00F0.6                 226     B_B6    BIT     0F0H.6
 00F0.7                 227     B_B7    BIT     0F0H.7
 00A8.0                 228     IE_EX0  BIT     0A8H.0
 00A8.1                 229     IE_ET0  BIT     0A8H.1
 00A8.2                 230     IE_EX1  BIT     0A8H.2
AX51 MACRO ASSEMBLER  EFM8UB1_BLINKY                                                        04/22/20 09:50:33 PAGE     5

 00A8.3                 231     IE_ET1  BIT     0A8H.3
 00A8.4                 232     IE_ES0  BIT     0A8H.4
 00A8.5                 233     IE_ET2  BIT     0A8H.5
 00A8.6                 234     IE_ESPI0        BIT     0A8H.6
 00A8.7                 235     IE_EA   BIT     0A8H.7
 00B8.0                 236     IP_PX0  BIT     0B8H.0
 00B8.1                 237     IP_PT0  BIT     0B8H.1
 00B8.2                 238     IP_PX1  BIT     0B8H.2
 00B8.3                 239     IP_PT1  BIT     0B8H.3
 00B8.4                 240     IP_PS0  BIT     0B8H.4
 00B8.5                 241     IP_PT2  BIT     0B8H.5
 00B8.6                 242     IP_PSPI0        BIT     0B8H.6
 0080.0                 243     P0_B0   BIT     080H.0
 0080.1                 244     P0_B1   BIT     080H.1
 0080.2                 245     P0_B2   BIT     080H.2
 0080.3                 246     P0_B3   BIT     080H.3
 0080.4                 247     P0_B4   BIT     080H.4
 0080.5                 248     P0_B5   BIT     080H.5
 0080.6                 249     P0_B6   BIT     080H.6
 0080.7                 250     P0_B7   BIT     080H.7
 0090.0                 251     P1_B0   BIT     090H.0
 0090.1                 252     P1_B1   BIT     090H.1
 0090.2                 253     P1_B2   BIT     090H.2
 0090.3                 254     P1_B3   BIT     090H.3
 0090.4                 255     P1_B4   BIT     090H.4
 0090.5                 256     P1_B5   BIT     090H.5
 0090.6                 257     P1_B6   BIT     090H.6
 0090.7                 258     P1_B7   BIT     090H.7
 00A0.0                 259     P2_B0   BIT     0A0H.0
 00A0.1                 260     P2_B1   BIT     0A0H.1
 00A0.2                 261     P2_B2   BIT     0A0H.2
 00A0.3                 262     P2_B3   BIT     0A0H.3
 00B0.0                 263     P3_B0   BIT     0B0H.0
 00B0.1                 264     P3_B1   BIT     0B0H.1
 00D8.0                 265     PCA0CN0_CCF0    BIT     0D8H.0
 00D8.1                 266     PCA0CN0_CCF1    BIT     0D8H.1
 00D8.2                 267     PCA0CN0_CCF2    BIT     0D8H.2
 00D8.6                 268     PCA0CN0_CR      BIT     0D8H.6
 00D8.7                 269     PCA0CN0_CF      BIT     0D8H.7
 00D0.0                 270     PSW_PARITY      BIT     0D0H.0
 00D0.1                 271     PSW_F1  BIT     0D0H.1
 00D0.2                 272     PSW_OV  BIT     0D0H.2
 00D0.3                 273     PSW_RS0 BIT     0D0H.3
 00D0.4                 274     PSW_RS1 BIT     0D0H.4
 00D0.5                 275     PSW_F0  BIT     0D0H.5
 00D0.6                 276     PSW_AC  BIT     0D0H.6
 00D0.7                 277     PSW_CY  BIT     0D0H.7
 0098.0                 278     SCON0_RI        BIT     098H.0
 0098.1                 279     SCON0_TI        BIT     098H.1
 0098.2                 280     SCON0_RB8       BIT     098H.2
 0098.3                 281     SCON0_TB8       BIT     098H.3
 0098.4                 282     SCON0_REN       BIT     098H.4
 0098.5                 283     SCON0_MCE       BIT     098H.5
 0098.7                 284     SCON0_SMODE     BIT     098H.7
 00C8.0                 285     SCON1_RI        BIT     0C8H.0
 00C8.1                 286     SCON1_TI        BIT     0C8H.1
 00C8.2                 287     SCON1_RBX       BIT     0C8H.2
 00C8.3                 288     SCON1_TBX       BIT     0C8H.3
 00C8.4                 289     SCON1_REN       BIT     0C8H.4
 00C8.6                 290     SCON1_PERR      BIT     0C8H.6
 00C8.7                 291     SCON1_OVR       BIT     0C8H.7
 00C0.0                 292     SMB0CN0_SI      BIT     0C0H.0
 00C0.1                 293     SMB0CN0_ACK     BIT     0C0H.1
AX51 MACRO ASSEMBLER  EFM8UB1_BLINKY                                                        04/22/20 09:50:33 PAGE     6

 00C0.2                 294     SMB0CN0_ARBLOST BIT     0C0H.2
 00C0.3                 295     SMB0CN0_ACKRQ   BIT     0C0H.3
 00C0.4                 296     SMB0CN0_STO     BIT     0C0H.4
 00C0.5                 297     SMB0CN0_STA     BIT     0C0H.5
 00C0.6                 298     SMB0CN0_TXMODE  BIT     0C0H.6
 00C0.7                 299     SMB0CN0_MASTER  BIT     0C0H.7
 00F8.0                 300     SPI0CN0_SPIEN   BIT     0F8H.0
 00F8.1                 301     SPI0CN0_TXNF    BIT     0F8H.1
 00F8.2                 302     SPI0CN0_NSSMD0  BIT     0F8H.2
 00F8.3                 303     SPI0CN0_NSSMD1  BIT     0F8H.3
 00F8.4                 304     SPI0CN0_RXOVRN  BIT     0F8H.4
 00F8.5                 305     SPI0CN0_MODF    BIT     0F8H.5
 00F8.6                 306     SPI0CN0_WCOL    BIT     0F8H.6
 00F8.7                 307     SPI0CN0_SPIF    BIT     0F8H.7
 0088.0                 308     TCON_IT0        BIT     088H.0
 0088.1                 309     TCON_IE0        BIT     088H.1
 0088.2                 310     TCON_IT1        BIT     088H.2
 0088.3                 311     TCON_IE1        BIT     088H.3
 0088.4                 312     TCON_TR0        BIT     088H.4
 0088.5                 313     TCON_TF0        BIT     088H.5
 0088.6                 314     TCON_TR1        BIT     088H.6
 0088.7                 315     TCON_TF1        BIT     088H.7
 00C8.0                 316     TMR2CN0_T2XCLK0 BIT     0C8H.0
 00C8.1                 317     TMR2CN0_T2XCLK1 BIT     0C8H.1
 00C8.2                 318     TMR2CN0_TR2     BIT     0C8H.2
 00C8.3                 319     TMR2CN0_T2SPLIT BIT     0C8H.3
 00C8.4                 320     TMR2CN0_TF2CEN  BIT     0C8H.4
 00C8.5                 321     TMR2CN0_TF2LEN  BIT     0C8H.5
 00C8.6                 322     TMR2CN0_TF2L    BIT     0C8H.6
 00C8.7                 323     TMR2CN0_TF2H    BIT     0C8H.7
 0098.0                 324     TMR4CN0_T4XCLK0 BIT     098H.0
 0098.1                 325     TMR4CN0_T4XCLK1 BIT     098H.1
 0098.2                 326     TMR4CN0_TR4     BIT     098H.2
 0098.3                 327     TMR4CN0_T4SPLIT BIT     098H.3
 0098.4                 328     TMR4CN0_TF4CEN  BIT     098H.4
 0098.5                 329     TMR4CN0_TF4LEN  BIT     098H.5
 0098.6                 330     TMR4CN0_TF4L    BIT     098H.6
 0098.7                 331     TMR4CN0_TF4H    BIT     098H.7
 00D8.0                 332     UART1FCN1_RIE   BIT     0D8H.0
 00D8.1                 333     UART1FCN1_RXTO0 BIT     0D8H.1
 00D8.2                 334     UART1FCN1_RXTO1 BIT     0D8H.2
 00D8.3                 335     UART1FCN1_RFRQ  BIT     0D8H.3
 00D8.4                 336     UART1FCN1_TIE   BIT     0D8H.4
 00D8.5                 337     UART1FCN1_TXHOLD        BIT     0D8H.5
 00D8.6                 338     UART1FCN1_TXNF  BIT     0D8H.6
 00D8.7                 339     UART1FCN1_TFRQ  BIT     0D8H.7
 00A0.3                 340     DISP_EN BIT     0A0H.3
------                  341     ?PR?SiLabs_Startup?EFM8UB1_BLINKY        SEGMENT CODE 
------                  342     ?PR?main?EFM8UB1_BLINKY                  SEGMENT CODE 
------                  343     ?C_INITSEG           SEGMENT CODE 
------                  344     ?DT?EFM8UB1_BLINKY   SEGMENT DATA 
                        345             EXTRN   CODE (enter_DefaultMode_from_RESET)
                        346             EXTRN   CODE (_ChangeBlue)
                        347             EXTRN   CODE (_ChangeRed)
                        348             EXTRN   CODE (_ChangeGreen)
                        349             EXTRN   CODE (_ChangeWhite)
                        350             EXTRN   CODE (?C_STARTUP)
                        351             PUBLIC  num
                        352             PUBLIC  main
                        353             PUBLIC  SiLabs_Startup
                        354     
------                  355             RSEG  ?DT?EFM8UB1_BLINKY
000000                  356                 num:   DS   1
AX51 MACRO ASSEMBLER  EFM8UB1_BLINKY                                                        04/22/20 09:50:33 PAGE     7

                        357     
------                  358             RSEG  ?C_INITSEG
000000 01               359             DB      001H
000001 00         F     360             DB      num
000002 00               361             DB      000H
                        362     
                        363     ; //-----------------------------------------------------------------------------
                        364     ; // EFM8UB1_Blinky.c
                        365     ; //-----------------------------------------------------------------------------
                        366     ; // Copyright 2014 Silicon Laboratories, Inc.
                        367     ; // http://developer.silabs.com/legal/version/v11/Silicon_Labs_Software_License_Agreeme
                               nt.txt
                        368     ; //
                        369     ; // Program Description:
                        370     ; //
                        371     ; // This program flashes the red/green/blue LED on the EFM8UB1 STK board about
                        372     ; // five times a second using the interrupt handler for Timer2.
                        373     ; //
                        374     ; // Resources:
                        375     ; //   SYSCLK - 24.5 MHz HFOSC0 / 8
                        376     ; //   Timer2 - 5 Hz interrupt
                        377     ; //   P1.4   - LED green
                        378     ; //   P1.5   - LED blue
                        379     ; //   P1.6   - LED red
                        380     ; //   P2.3   - Display enable
                        381     ; //
                        382     ; //-----------------------------------------------------------------------------
                        383     ; // How To Test: EFM8UB1 STK
                        384     ; //-----------------------------------------------------------------------------
                        385     ; // 1) Place the switch in "AEM" mode.
                        386     ; // 2) Connect the EFM8UB1 STK board to a PC using a mini USB cable.
                        387     ; // 3) Compile and download code to the EFM8UB1 STK board.
                        388     ; //    In Simplicity Studio IDE, select Run -> Debug from the menu bar,
                        389     ; //    click the Debug button in the quick menu, or press F11.
                        390     ; // 4) Run the code.
                        391     ; //    In Simplicity Studio IDE, select Run -> Resume from the menu bar,
                        392     ; //    click the Resume button in the quick menu, or press F8.
                        393     ; // 5) The RGB LED should alternate colors at approximately 5 Hz.
                        394     ; //
                        395     ; // Target:         EFM8UB1
                        396     ; // Tool chain:     Generic
                        397     ; //
                        398     ; // Release 0.1 (MW, ST)
                        399     ; //    - Initial Revision
                        400     ; //    - 10 OCT 2014
                        401     ; //
                        402     ; 
                        403     ; //-----------------------------------------------------------------------------
                        404     ; // Includes
                        405     ; //-----------------------------------------------------------------------------
                        406     ; #include <SI_EFM8UB1_Register_Enums.h>
                        407     ; #include <InitDevice.h>
                        408     ; 
                        409     ; 
                        410     ; //-----------------------------------------------------------------------------
                        411     ; // Pin Definitions
                        412     ; //-----------------------------------------------------------------------------
                        413     ; SI_SBIT (DISP_EN, SFR_P2, 3);          // Display Enable
                        414     ; #define DISP_BC_DRIVEN   0             // 0 = Board Controller drives display
                        415     ; #define DISP_EFM8_DRIVEN 1             // 1 = EFM8 drives display
                        416     ; 
                        417     ; 
                        418     ; void ANYCOLORS (void);
AX51 MACRO ASSEMBLER  EFM8UB1_BLINKY                                                        04/22/20 09:50:33 PAGE     8

                        419     ; void LEDSLOOPG (uint8_t count);
                        420     ; void LEDSLOOPR (uint8_t count);
                        421     ; void LEDSLOOPB (uint8_t count);
                        422     ; void LEDSLOOPW (uint8_t count);
                        423     ; void _ChangeBlue(void);
                        424     ; void _ChangeRed(void);
                        425     ; void _ChangeGreen(void);
                        426     ; void _ChangeWhite(void);
                        427     ; //-----------------------------------------------------------------------------
                        428     ; // SiLabs_Startup() Routine
                        429     ; // ----------------------------------------------------------------------------
                        430     ; // This function is called immediately after reset, before the initialization
                        431     ; // code is run in SILABS_STARTUP.A51 (which runs before main() ). This is a
                        432     ; // useful place to disable the watchdog timer, which is enable by default
                        433     ; // and may trigger before main() in some instances.
                        434     ; //-----------------------------------------------------------------------------
                        435     ; void SiLabs_Startup (void)
                        436     
------                  437             RSEG  ?PR?SiLabs_Startup?EFM8UB1_BLINKY
000000                  438     SiLabs_Startup:
                        439             USING   0
                        440                             ; SOURCE LINE # 73
                        441     ; {
                        442                             ; SOURCE LINE # 74
                        443     ;   // Disable the watchdog here
                        444     ; }
                        445                             ; SOURCE LINE # 76
000000 22               446             RET     
                        447     ; END OF SiLabs_Startup
                        448     
                        449     ; 
                        450     ;  uint8_t num = 0;
                        451     ; //-----------------------------------------------------------------------------
                        452     ; // Main Routine
                        453     ; //-----------------------------------------------------------------------------
                        454     ; void main (void)
                        455     
------                  456             RSEG  ?PR?main?EFM8UB1_BLINKY
000000                  457     main:
                        458             USING   0
                        459                             ; SOURCE LINE # 82
                        460     ; {
                        461                             ; SOURCE LINE # 83
                        462     ;    enter_DefaultMode_from_RESET();
                        463                             ; SOURCE LINE # 84
000000 120000     E     464             LCALL   enter_DefaultMode_from_RESET
                        465     ; 
                        466     ;    DISP_EN = DISP_BC_DRIVEN;           // Display not driven by EFM8
                        467                             ; SOURCE LINE # 86
000003 C2A3             468             CLR     DISP_EN
                        469     ; 
                        470     ;    IE_EA = 0;                          // Enable global interrupts
                        471                             ; SOURCE LINE # 88
000005 C2AF             472             CLR     IE_EA
                        473     ; 
                        474     ;    //LEDSLOOPG(15);
                        475     ;    //LEDSLOOPB(3);
                        476     ;    //LEDSLOOPR(3);
                        477     ; 
                        478     ;    _ChangeRed();
                        479                             ; SOURCE LINE # 94
000007 120000     E     480             LCALL   _ChangeRed
                        481     ;    _ChangeGreen();
AX51 MACRO ASSEMBLER  EFM8UB1_BLINKY                                                        04/22/20 09:50:33 PAGE     9

                        482                             ; SOURCE LINE # 95
00000A 120000     E     483             LCALL   _ChangeGreen
                        484     ;    _ChangeBlue();
                        485                             ; SOURCE LINE # 96
00000D 120000     E     486             LCALL   _ChangeBlue
                        487     ;    _ChangeWhite();
                        488                             ; SOURCE LINE # 97
000010 120000     E     489             LCALL   _ChangeWhite
                        490     ; 
                        491     ; 
                        492     ;    for(num =0; num<10; num++)
                        493                             ; SOURCE LINE # 100
000013 750000     F     494             MOV     num,#00H
000016                  495     ?C0002:
000016 AF00       F     496             MOV     R7,num
000018 7E00             497             MOV     R6,#00H
00001A C3               498             CLR     C
00001B EF               499             MOV     A,R7
00001C 940A             500             SUBB    A,#0AH
00001E EE               501             MOV     A,R6
00001F 6480             502             XRL     A,#080H
000021 9480             503             SUBB    A,#080H
000023 5007             504             JNC     ?C0003
                        505     ;    {
                        506                             ; SOURCE LINE # 101
                        507     ;          _ChangeWhite();
                        508                             ; SOURCE LINE # 102
000025 120000     E     509             LCALL   _ChangeWhite
                        510     ;    }
                        511                             ; SOURCE LINE # 103
000028 0500       F     512             INC     num
00002A 80EA             513             SJMP    ?C0002
00002C                  514     ?C0003:
                        515     ;    for(num =0; num<10; num++)
                        516                             ; SOURCE LINE # 104
00002C 750000     F     517             MOV     num,#00H
00002F                  518     ?C0005:
00002F AF00       F     519             MOV     R7,num
000031 7E00             520             MOV     R6,#00H
000033 C3               521             CLR     C
000034 EF               522             MOV     A,R7
000035 940A             523             SUBB    A,#0AH
000037 EE               524             MOV     A,R6
000038 6480             525             XRL     A,#080H
00003A 9480             526             SUBB    A,#080H
00003C 5007             527             JNC     ?C0006
                        528     ;    {
                        529                             ; SOURCE LINE # 105
                        530     ;          _ChangeBlue();
                        531                             ; SOURCE LINE # 106
00003E 120000     E     532             LCALL   _ChangeBlue
                        533     ;    }
                        534                             ; SOURCE LINE # 107
000041 0500       F     535             INC     num
000043 80EA             536             SJMP    ?C0005
000045                  537     ?C0006:
                        538     ;    for(num =0; num<10; num++)
                        539                             ; SOURCE LINE # 108
000045 750000     F     540             MOV     num,#00H
000048                  541     ?C0008:
000048 AF00       F     542             MOV     R7,num
00004A 7E00             543             MOV     R6,#00H
00004C C3               544             CLR     C
AX51 MACRO ASSEMBLER  EFM8UB1_BLINKY                                                        04/22/20 09:50:33 PAGE    10

00004D EF               545             MOV     A,R7
00004E 940A             546             SUBB    A,#0AH
000050 EE               547             MOV     A,R6
000051 6480             548             XRL     A,#080H
000053 9480             549             SUBB    A,#080H
000055 5007             550             JNC     ?C0009
                        551     ;    {
                        552                             ; SOURCE LINE # 109
                        553     ;          _ChangeGreen();
                        554                             ; SOURCE LINE # 110
000057 120000     E     555             LCALL   _ChangeGreen
                        556     ;    }
                        557                             ; SOURCE LINE # 111
00005A 0500       F     558             INC     num
00005C 80EA             559             SJMP    ?C0008
00005E                  560     ?C0009:
                        561     ;    for(num =0; num<10; num++)
                        562                             ; SOURCE LINE # 112
00005E 750000     F     563             MOV     num,#00H
000061                  564     ?C0011:
000061 AF00       F     565             MOV     R7,num
000063 7E00             566             MOV     R6,#00H
000065 C3               567             CLR     C
000066 EF               568             MOV     A,R7
000067 940A             569             SUBB    A,#0AH
000069 EE               570             MOV     A,R6
00006A 6480             571             XRL     A,#080H
00006C 9480             572             SUBB    A,#080H
00006E 5007             573             JNC     ?C0014
                        574     ;    {
                        575                             ; SOURCE LINE # 113
                        576     ;          _ChangeRed();
                        577                             ; SOURCE LINE # 114
000070 120000     E     578             LCALL   _ChangeRed
                        579     ;    }
                        580                             ; SOURCE LINE # 115
000073 0500       F     581             INC     num
000075 80EA             582             SJMP    ?C0011
                        583     ; 
                        584     ; }
                        585                             ; SOURCE LINE # 117
000077                  586     ?C0014:
000077 22               587             RET     
                        588     ; END OF main
                        589     
                        590             END
AX51 MACRO ASSEMBLER  EFM8UB1_BLINKY                                                        04/22/20 09:50:33 PAGE    11

SYMBOL TABLE LISTING
------ ----- -------


N A M E                                    T Y P E  V A L U E     ATTRIBUTES

?C0002. . . . . . . . . . . . . . . . .    C  ADDR  0016H     R   SEG=?PR?MAIN?EFM8UB1_BLINKY
?C0003. . . . . . . . . . . . . . . . .    C  ADDR  002CH     R   SEG=?PR?MAIN?EFM8UB1_BLINKY
?C0005. . . . . . . . . . . . . . . . .    C  ADDR  002FH     R   SEG=?PR?MAIN?EFM8UB1_BLINKY
?C0006. . . . . . . . . . . . . . . . .    C  ADDR  0045H     R   SEG=?PR?MAIN?EFM8UB1_BLINKY
?C0008. . . . . . . . . . . . . . . . .    C  ADDR  0048H     R   SEG=?PR?MAIN?EFM8UB1_BLINKY
?C0009. . . . . . . . . . . . . . . . .    C  ADDR  005EH     R   SEG=?PR?MAIN?EFM8UB1_BLINKY
?C0011. . . . . . . . . . . . . . . . .    C  ADDR  0061H     R   SEG=?PR?MAIN?EFM8UB1_BLINKY
?C0014. . . . . . . . . . . . . . . . .    C  ADDR  0077H     R   SEG=?PR?MAIN?EFM8UB1_BLINKY
?C_INITSEG. . . . . . . . . . . . . . .    C  SEG   000003H       REL=UNIT, ALN=BYTE
?C_STARTUP. . . . . . . . . . . . . . .    C  ADDR  -------       EXT
?DT?EFM8UB1_BLINKY. . . . . . . . . . .    D  SEG   000001H       REL=UNIT, ALN=BYTE
?PR?MAIN?EFM8UB1_BLINKY . . . . . . . .    C  SEG   000078H       REL=UNIT, ALN=BYTE
?PR?SILABS_STARTUP?EFM8UB1_BLINKY . . .    C  SEG   000001H       REL=UNIT, ALN=BYTE
_CHANGEBLUE . . . . . . . . . . . . . .    C  ADDR  -------       EXT
_CHANGEGREEN. . . . . . . . . . . . . .    C  ADDR  -------       EXT
_CHANGERED. . . . . . . . . . . . . . .    C  ADDR  -------       EXT
_CHANGEWHITE. . . . . . . . . . . . . .    C  ADDR  -------       EXT
ACC . . . . . . . . . . . . . . . . . .    D  ADDR  00E0H     A   
ACC_ACC0. . . . . . . . . . . . . . . .    B  ADDR  00E0H.0   A   
ACC_ACC1. . . . . . . . . . . . . . . .    B  ADDR  00E0H.1   A   
ACC_ACC2. . . . . . . . . . . . . . . .    B  ADDR  00E0H.2   A   
ACC_ACC3. . . . . . . . . . . . . . . .    B  ADDR  00E0H.3   A   
ACC_ACC4. . . . . . . . . . . . . . . .    B  ADDR  00E0H.4   A   
ACC_ACC5. . . . . . . . . . . . . . . .    B  ADDR  00E0H.5   A   
ACC_ACC6. . . . . . . . . . . . . . . .    B  ADDR  00E0H.6   A   
ACC_ACC7. . . . . . . . . . . . . . . .    B  ADDR  00E0H.7   A   
ADC0. . . . . . . . . . . . . . . . . .    D  ADDR  00BDH     A   
ADC0AC. . . . . . . . . . . . . . . . .    D  ADDR  00B3H     A   
ADC0CF. . . . . . . . . . . . . . . . .    D  ADDR  00BCH     A   
ADC0CN0 . . . . . . . . . . . . . . . .    D  ADDR  00E8H     A   
ADC0CN0_ADBMEN. . . . . . . . . . . . .    B  ADDR  00E8H.6   A   
ADC0CN0_ADBUSY. . . . . . . . . . . . .    B  ADDR  00E8H.4   A   
ADC0CN0_ADCM0 . . . . . . . . . . . . .    B  ADDR  00E8H.0   A   
ADC0CN0_ADCM1 . . . . . . . . . . . . .    B  ADDR  00E8H.1   A   
ADC0CN0_ADCM2 . . . . . . . . . . . . .    B  ADDR  00E8H.2   A   
ADC0CN0_ADEN. . . . . . . . . . . . . .    B  ADDR  00E8H.7   A   
ADC0CN0_ADINT . . . . . . . . . . . . .    B  ADDR  00E8H.5   A   
ADC0CN0_ADWINT. . . . . . . . . . . . .    B  ADDR  00E8H.3   A   
ADC0CN1 . . . . . . . . . . . . . . . .    D  ADDR  00B2H     A   
ADC0GT. . . . . . . . . . . . . . . . .    D  ADDR  00C3H     A   
ADC0GTH . . . . . . . . . . . . . . . .    D  ADDR  00C4H     A   
ADC0GTL . . . . . . . . . . . . . . . .    D  ADDR  00C3H     A   
ADC0H . . . . . . . . . . . . . . . . .    D  ADDR  00BEH     A   
ADC0L . . . . . . . . . . . . . . . . .    D  ADDR  00BDH     A   
ADC0LT. . . . . . . . . . . . . . . . .    D  ADDR  00C5H     A   
ADC0LTH . . . . . . . . . . . . . . . .    D  ADDR  00C6H     A   
ADC0LTL . . . . . . . . . . . . . . . .    D  ADDR  00C5H     A   
ADC0MX. . . . . . . . . . . . . . . . .    D  ADDR  00BBH     A   
ADC0PWR . . . . . . . . . . . . . . . .    D  ADDR  00DFH     A   
ADC0TK. . . . . . . . . . . . . . . . .    D  ADDR  00B9H     A   
B . . . . . . . . . . . . . . . . . . .    D  ADDR  00F0H     A   
B_B0. . . . . . . . . . . . . . . . . .    B  ADDR  00F0H.0   A   
B_B1. . . . . . . . . . . . . . . . . .    B  ADDR  00F0H.1   A   
B_B2. . . . . . . . . . . . . . . . . .    B  ADDR  00F0H.2   A   
B_B3. . . . . . . . . . . . . . . . . .    B  ADDR  00F0H.3   A   
B_B4. . . . . . . . . . . . . . . . . .    B  ADDR  00F0H.4   A   
B_B5. . . . . . . . . . . . . . . . . .    B  ADDR  00F0H.5   A   
AX51 MACRO ASSEMBLER  EFM8UB1_BLINKY                                                        04/22/20 09:50:33 PAGE    12

B_B6. . . . . . . . . . . . . . . . . .    B  ADDR  00F0H.6   A   
B_B7. . . . . . . . . . . . . . . . . .    B  ADDR  00F0H.7   A   
CKCON0. . . . . . . . . . . . . . . . .    D  ADDR  008EH     A   
CKCON1. . . . . . . . . . . . . . . . .    D  ADDR  00A6H     A   
CLKSEL. . . . . . . . . . . . . . . . .    D  ADDR  00A9H     A   
CMP0CN0 . . . . . . . . . . . . . . . .    D  ADDR  009BH     A   
CMP0CN1 . . . . . . . . . . . . . . . .    D  ADDR  0099H     A   
CMP0MD. . . . . . . . . . . . . . . . .    D  ADDR  009DH     A   
CMP0MX. . . . . . . . . . . . . . . . .    D  ADDR  009FH     A   
CMP1CN0 . . . . . . . . . . . . . . . .    D  ADDR  00BFH     A   
CMP1CN1 . . . . . . . . . . . . . . . .    D  ADDR  00ACH     A   
CMP1MD. . . . . . . . . . . . . . . . .    D  ADDR  00ABH     A   
CMP1MX. . . . . . . . . . . . . . . . .    D  ADDR  00AAH     A   
CRC0CN0 . . . . . . . . . . . . . . . .    D  ADDR  00CEH     A   
CRC0CN1 . . . . . . . . . . . . . . . .    D  ADDR  0086H     A   
CRC0CNT . . . . . . . . . . . . . . . .    D  ADDR  00D3H     A   
CRC0DAT . . . . . . . . . . . . . . . .    D  ADDR  00DEH     A   
CRC0FLIP. . . . . . . . . . . . . . . .    D  ADDR  00CFH     A   
CRC0IN. . . . . . . . . . . . . . . . .    D  ADDR  00DDH     A   
CRC0ST. . . . . . . . . . . . . . . . .    D  ADDR  00D2H     A   
DERIVID . . . . . . . . . . . . . . . .    D  ADDR  00ADH     A   
DEVICEID. . . . . . . . . . . . . . . .    D  ADDR  00B5H     A   
DISP_EN . . . . . . . . . . . . . . . .    B  ADDR  00A0H.3   A   
DP. . . . . . . . . . . . . . . . . . .    D  ADDR  0082H     A   
DPH . . . . . . . . . . . . . . . . . .    D  ADDR  0083H     A   
DPL . . . . . . . . . . . . . . . . . .    D  ADDR  0082H     A   
EFM8UB1_BLINKY. . . . . . . . . . . . .    -- ----  -------       
EIE1. . . . . . . . . . . . . . . . . .    D  ADDR  00E6H     A   
EIE2. . . . . . . . . . . . . . . . . .    D  ADDR  00CEH     A   
EIP1. . . . . . . . . . . . . . . . . .    D  ADDR  00F3H     A   
EIP1H . . . . . . . . . . . . . . . . .    D  ADDR  00F5H     A   
EIP2. . . . . . . . . . . . . . . . . .    D  ADDR  00F4H     A   
EIP2H . . . . . . . . . . . . . . . . .    D  ADDR  00F6H     A   
EMI0CN. . . . . . . . . . . . . . . . .    D  ADDR  00E7H     A   
ENTER_DEFAULTMODE_FROM_RESET. . . . . .    C  ADDR  -------       EXT
FLKEY . . . . . . . . . . . . . . . . .    D  ADDR  00B7H     A   
HFO0CAL . . . . . . . . . . . . . . . .    D  ADDR  00C7H     A   
HFO1CAL . . . . . . . . . . . . . . . .    D  ADDR  00D6H     A   
HFOCN . . . . . . . . . . . . . . . . .    D  ADDR  00EFH     A   
I2C0CN0 . . . . . . . . . . . . . . . .    D  ADDR  00BAH     A   
I2C0DIN . . . . . . . . . . . . . . . .    D  ADDR  00BCH     A   
I2C0DOUT. . . . . . . . . . . . . . . .    D  ADDR  00BBH     A   
I2C0FCN0. . . . . . . . . . . . . . . .    D  ADDR  00ADH     A   
I2C0FCN1. . . . . . . . . . . . . . . .    D  ADDR  00ABH     A   
I2C0FCT . . . . . . . . . . . . . . . .    D  ADDR  00F5H     A   
I2C0SLAD. . . . . . . . . . . . . . . .    D  ADDR  00BDH     A   
I2C0STAT. . . . . . . . . . . . . . . .    D  ADDR  00B9H     A   
IE. . . . . . . . . . . . . . . . . . .    D  ADDR  00A8H     A   
IE_EA . . . . . . . . . . . . . . . . .    B  ADDR  00A8H.7   A   
IE_ES0. . . . . . . . . . . . . . . . .    B  ADDR  00A8H.4   A   
IE_ESPI0. . . . . . . . . . . . . . . .    B  ADDR  00A8H.6   A   
IE_ET0. . . . . . . . . . . . . . . . .    B  ADDR  00A8H.1   A   
IE_ET1. . . . . . . . . . . . . . . . .    B  ADDR  00A8H.3   A   
IE_ET2. . . . . . . . . . . . . . . . .    B  ADDR  00A8H.5   A   
IE_EX0. . . . . . . . . . . . . . . . .    B  ADDR  00A8H.0   A   
IE_EX1. . . . . . . . . . . . . . . . .    B  ADDR  00A8H.2   A   
IP. . . . . . . . . . . . . . . . . . .    D  ADDR  00B8H     A   
IP_PS0. . . . . . . . . . . . . . . . .    B  ADDR  00B8H.4   A   
IP_PSPI0. . . . . . . . . . . . . . . .    B  ADDR  00B8H.6   A   
IP_PT0. . . . . . . . . . . . . . . . .    B  ADDR  00B8H.1   A   
IP_PT1. . . . . . . . . . . . . . . . .    B  ADDR  00B8H.3   A   
IP_PT2. . . . . . . . . . . . . . . . .    B  ADDR  00B8H.5   A   
IP_PX0. . . . . . . . . . . . . . . . .    B  ADDR  00B8H.0   A   
AX51 MACRO ASSEMBLER  EFM8UB1_BLINKY                                                        04/22/20 09:50:33 PAGE    13

IP_PX1. . . . . . . . . . . . . . . . .    B  ADDR  00B8H.2   A   
IPH . . . . . . . . . . . . . . . . . .    D  ADDR  00F2H     A   
IT01CF. . . . . . . . . . . . . . . . .    D  ADDR  00E4H     A   
LFO0CN. . . . . . . . . . . . . . . . .    D  ADDR  00B1H     A   
MAIN. . . . . . . . . . . . . . . . . .    C  ADDR  0000H     R   SEG=?PR?MAIN?EFM8UB1_BLINKY
NUM . . . . . . . . . . . . . . . . . .    D  ADDR  0000H     R   SEG=?DT?EFM8UB1_BLINKY
P0. . . . . . . . . . . . . . . . . . .    D  ADDR  0080H     A   
P0_B0 . . . . . . . . . . . . . . . . .    B  ADDR  0080H.0   A   
P0_B1 . . . . . . . . . . . . . . . . .    B  ADDR  0080H.1   A   
P0_B2 . . . . . . . . . . . . . . . . .    B  ADDR  0080H.2   A   
P0_B3 . . . . . . . . . . . . . . . . .    B  ADDR  0080H.3   A   
P0_B4 . . . . . . . . . . . . . . . . .    B  ADDR  0080H.4   A   
P0_B5 . . . . . . . . . . . . . . . . .    B  ADDR  0080H.5   A   
P0_B6 . . . . . . . . . . . . . . . . .    B  ADDR  0080H.6   A   
P0_B7 . . . . . . . . . . . . . . . . .    B  ADDR  0080H.7   A   
P0MASK. . . . . . . . . . . . . . . . .    D  ADDR  00FEH     A   
P0MAT . . . . . . . . . . . . . . . . .    D  ADDR  00FDH     A   
P0MDIN. . . . . . . . . . . . . . . . .    D  ADDR  00F1H     A   
P0MDOUT . . . . . . . . . . . . . . . .    D  ADDR  00A4H     A   
P0SKIP. . . . . . . . . . . . . . . . .    D  ADDR  00D4H     A   
P1. . . . . . . . . . . . . . . . . . .    D  ADDR  0090H     A   
P1_B0 . . . . . . . . . . . . . . . . .    B  ADDR  0090H.0   A   
P1_B1 . . . . . . . . . . . . . . . . .    B  ADDR  0090H.1   A   
P1_B2 . . . . . . . . . . . . . . . . .    B  ADDR  0090H.2   A   
P1_B3 . . . . . . . . . . . . . . . . .    B  ADDR  0090H.3   A   
P1_B4 . . . . . . . . . . . . . . . . .    B  ADDR  0090H.4   A   
P1_B5 . . . . . . . . . . . . . . . . .    B  ADDR  0090H.5   A   
P1_B6 . . . . . . . . . . . . . . . . .    B  ADDR  0090H.6   A   
P1_B7 . . . . . . . . . . . . . . . . .    B  ADDR  0090H.7   A   
P1MASK. . . . . . . . . . . . . . . . .    D  ADDR  00EEH     A   
P1MAT . . . . . . . . . . . . . . . . .    D  ADDR  00EDH     A   
P1MDIN. . . . . . . . . . . . . . . . .    D  ADDR  00F2H     A   
P1MDOUT . . . . . . . . . . . . . . . .    D  ADDR  00A5H     A   
P1SKIP. . . . . . . . . . . . . . . . .    D  ADDR  00D5H     A   
P2. . . . . . . . . . . . . . . . . . .    D  ADDR  00A0H     A   
P2_B0 . . . . . . . . . . . . . . . . .    B  ADDR  00A0H.0   A   
P2_B1 . . . . . . . . . . . . . . . . .    B  ADDR  00A0H.1   A   
P2_B2 . . . . . . . . . . . . . . . . .    B  ADDR  00A0H.2   A   
P2_B3 . . . . . . . . . . . . . . . . .    B  ADDR  00A0H.3   A   
P2MASK. . . . . . . . . . . . . . . . .    D  ADDR  00FCH     A   
P2MAT . . . . . . . . . . . . . . . . .    D  ADDR  00FBH     A   
P2MDIN. . . . . . . . . . . . . . . . .    D  ADDR  00F3H     A   
P2MDOUT . . . . . . . . . . . . . . . .    D  ADDR  00A6H     A   
P2SKIP. . . . . . . . . . . . . . . . .    D  ADDR  00CCH     A   
P3. . . . . . . . . . . . . . . . . . .    D  ADDR  00B0H     A   
P3_B0 . . . . . . . . . . . . . . . . .    B  ADDR  00B0H.0   A   
P3_B1 . . . . . . . . . . . . . . . . .    B  ADDR  00B0H.1   A   
P3MDIN. . . . . . . . . . . . . . . . .    D  ADDR  00F4H     A   
P3MDOUT . . . . . . . . . . . . . . . .    D  ADDR  009CH     A   
PCA0. . . . . . . . . . . . . . . . . .    D  ADDR  00F9H     A   
PCA0CENT. . . . . . . . . . . . . . . .    D  ADDR  009EH     A   
PCA0CLR . . . . . . . . . . . . . . . .    D  ADDR  009CH     A   
PCA0CN0 . . . . . . . . . . . . . . . .    D  ADDR  00D8H     A   
PCA0CN0_CCF0. . . . . . . . . . . . . .    B  ADDR  00D8H.0   A   
PCA0CN0_CCF1. . . . . . . . . . . . . .    B  ADDR  00D8H.1   A   
PCA0CN0_CCF2. . . . . . . . . . . . . .    B  ADDR  00D8H.2   A   
PCA0CN0_CF. . . . . . . . . . . . . . .    B  ADDR  00D8H.7   A   
PCA0CN0_CR. . . . . . . . . . . . . . .    B  ADDR  00D8H.6   A   
PCA0CP0 . . . . . . . . . . . . . . . .    D  ADDR  00FBH     A   
PCA0CP1 . . . . . . . . . . . . . . . .    D  ADDR  00E9H     A   
PCA0CP2 . . . . . . . . . . . . . . . .    D  ADDR  00EBH     A   
PCA0CPH0. . . . . . . . . . . . . . . .    D  ADDR  00FCH     A   
PCA0CPH1. . . . . . . . . . . . . . . .    D  ADDR  00EAH     A   
AX51 MACRO ASSEMBLER  EFM8UB1_BLINKY                                                        04/22/20 09:50:33 PAGE    14

PCA0CPH2. . . . . . . . . . . . . . . .    D  ADDR  00ECH     A   
PCA0CPL0. . . . . . . . . . . . . . . .    D  ADDR  00FBH     A   
PCA0CPL1. . . . . . . . . . . . . . . .    D  ADDR  00E9H     A   
PCA0CPL2. . . . . . . . . . . . . . . .    D  ADDR  00EBH     A   
PCA0CPM0. . . . . . . . . . . . . . . .    D  ADDR  00DAH     A   
PCA0CPM1. . . . . . . . . . . . . . . .    D  ADDR  00DBH     A   
PCA0CPM2. . . . . . . . . . . . . . . .    D  ADDR  00DCH     A   
PCA0H . . . . . . . . . . . . . . . . .    D  ADDR  00FAH     A   
PCA0L . . . . . . . . . . . . . . . . .    D  ADDR  00F9H     A   
PCA0MD. . . . . . . . . . . . . . . . .    D  ADDR  00D9H     A   
PCA0POL . . . . . . . . . . . . . . . .    D  ADDR  0096H     A   
PCA0PWM . . . . . . . . . . . . . . . .    D  ADDR  00F7H     A   
PCON0 . . . . . . . . . . . . . . . . .    D  ADDR  0087H     A   
PCON1 . . . . . . . . . . . . . . . . .    D  ADDR  009AH     A   
PFE0CN. . . . . . . . . . . . . . . . .    D  ADDR  00C1H     A   
PRTDRV. . . . . . . . . . . . . . . . .    D  ADDR  00F6H     A   
PSCTL . . . . . . . . . . . . . . . . .    D  ADDR  008FH     A   
PSW . . . . . . . . . . . . . . . . . .    D  ADDR  00D0H     A   
PSW_AC. . . . . . . . . . . . . . . . .    B  ADDR  00D0H.6   A   
PSW_CY. . . . . . . . . . . . . . . . .    B  ADDR  00D0H.7   A   
PSW_F0. . . . . . . . . . . . . . . . .    B  ADDR  00D0H.5   A   
PSW_F1. . . . . . . . . . . . . . . . .    B  ADDR  00D0H.1   A   
PSW_OV. . . . . . . . . . . . . . . . .    B  ADDR  00D0H.2   A   
PSW_PARITY. . . . . . . . . . . . . . .    B  ADDR  00D0H.0   A   
PSW_RS0 . . . . . . . . . . . . . . . .    B  ADDR  00D0H.3   A   
PSW_RS1 . . . . . . . . . . . . . . . .    B  ADDR  00D0H.4   A   
REF0CN. . . . . . . . . . . . . . . . .    D  ADDR  00D1H     A   
REG0CN. . . . . . . . . . . . . . . . .    D  ADDR  00C9H     A   
REG1CN. . . . . . . . . . . . . . . . .    D  ADDR  00C6H     A   
REVID . . . . . . . . . . . . . . . . .    D  ADDR  00B6H     A   
RSTSRC. . . . . . . . . . . . . . . . .    D  ADDR  00EFH     A   
SBCON1. . . . . . . . . . . . . . . . .    D  ADDR  0094H     A   
SBRL1 . . . . . . . . . . . . . . . . .    D  ADDR  0095H     A   
SBRLH1. . . . . . . . . . . . . . . . .    D  ADDR  0096H     A   
SBRLL1. . . . . . . . . . . . . . . . .    D  ADDR  0095H     A   
SBUF0 . . . . . . . . . . . . . . . . .    D  ADDR  0099H     A   
SBUF1 . . . . . . . . . . . . . . . . .    D  ADDR  0092H     A   
SCON0 . . . . . . . . . . . . . . . . .    D  ADDR  0098H     A   
SCON0_MCE . . . . . . . . . . . . . . .    B  ADDR  0098H.5   A   
SCON0_RB8 . . . . . . . . . . . . . . .    B  ADDR  0098H.2   A   
SCON0_REN . . . . . . . . . . . . . . .    B  ADDR  0098H.4   A   
SCON0_RI. . . . . . . . . . . . . . . .    B  ADDR  0098H.0   A   
SCON0_SMODE . . . . . . . . . . . . . .    B  ADDR  0098H.7   A   
SCON0_TB8 . . . . . . . . . . . . . . .    B  ADDR  0098H.3   A   
SCON0_TI. . . . . . . . . . . . . . . .    B  ADDR  0098H.1   A   
SCON1 . . . . . . . . . . . . . . . . .    D  ADDR  00C8H     A   
SCON1_OVR . . . . . . . . . . . . . . .    B  ADDR  00C8H.7   A   
SCON1_PERR. . . . . . . . . . . . . . .    B  ADDR  00C8H.6   A   
SCON1_RBX . . . . . . . . . . . . . . .    B  ADDR  00C8H.2   A   
SCON1_REN . . . . . . . . . . . . . . .    B  ADDR  00C8H.4   A   
SCON1_RI. . . . . . . . . . . . . . . .    B  ADDR  00C8H.0   A   
SCON1_TBX . . . . . . . . . . . . . . .    B  ADDR  00C8H.3   A   
SCON1_TI. . . . . . . . . . . . . . . .    B  ADDR  00C8H.1   A   
SFRPAGE . . . . . . . . . . . . . . . .    D  ADDR  00A7H     A   
SFRPGCN . . . . . . . . . . . . . . . .    D  ADDR  00CFH     A   
SFRSTACK. . . . . . . . . . . . . . . .    D  ADDR  00D7H     A   
SILABS_STARTUP. . . . . . . . . . . . .    C  ADDR  0000H     R   SEG=?PR?SILABS_STARTUP?EFM8UB1_BLINKY
SMB0ADM . . . . . . . . . . . . . . . .    D  ADDR  00D6H     A   
SMB0ADR . . . . . . . . . . . . . . . .    D  ADDR  00D7H     A   
SMB0CF. . . . . . . . . . . . . . . . .    D  ADDR  00C1H     A   
SMB0CN0 . . . . . . . . . . . . . . . .    D  ADDR  00C0H     A   
SMB0CN0_ACK . . . . . . . . . . . . . .    B  ADDR  00C0H.1   A   
SMB0CN0_ACKRQ . . . . . . . . . . . . .    B  ADDR  00C0H.3   A   
AX51 MACRO ASSEMBLER  EFM8UB1_BLINKY                                                        04/22/20 09:50:33 PAGE    15

SMB0CN0_ARBLOST . . . . . . . . . . . .    B  ADDR  00C0H.2   A   
SMB0CN0_MASTER. . . . . . . . . . . . .    B  ADDR  00C0H.7   A   
SMB0CN0_SI. . . . . . . . . . . . . . .    B  ADDR  00C0H.0   A   
SMB0CN0_STA . . . . . . . . . . . . . .    B  ADDR  00C0H.5   A   
SMB0CN0_STO . . . . . . . . . . . . . .    B  ADDR  00C0H.4   A   
SMB0CN0_TXMODE. . . . . . . . . . . . .    B  ADDR  00C0H.6   A   
SMB0DAT . . . . . . . . . . . . . . . .    D  ADDR  00C2H     A   
SMB0FCN0. . . . . . . . . . . . . . . .    D  ADDR  00C3H     A   
SMB0FCN1. . . . . . . . . . . . . . . .    D  ADDR  00C4H     A   
SMB0FCT . . . . . . . . . . . . . . . .    D  ADDR  00EFH     A   
SMB0RXLN. . . . . . . . . . . . . . . .    D  ADDR  00C5H     A   
SMB0TC. . . . . . . . . . . . . . . . .    D  ADDR  00ACH     A   
SMOD1 . . . . . . . . . . . . . . . . .    D  ADDR  0093H     A   
SP. . . . . . . . . . . . . . . . . . .    D  ADDR  0081H     A   
SPI0CFG . . . . . . . . . . . . . . . .    D  ADDR  00A1H     A   
SPI0CKR . . . . . . . . . . . . . . . .    D  ADDR  00A2H     A   
SPI0CN0 . . . . . . . . . . . . . . . .    D  ADDR  00F8H     A   
SPI0CN0_MODF. . . . . . . . . . . . . .    B  ADDR  00F8H.5   A   
SPI0CN0_NSSMD0. . . . . . . . . . . . .    B  ADDR  00F8H.2   A   
SPI0CN0_NSSMD1. . . . . . . . . . . . .    B  ADDR  00F8H.3   A   
SPI0CN0_RXOVRN. . . . . . . . . . . . .    B  ADDR  00F8H.4   A   
SPI0CN0_SPIEN . . . . . . . . . . . . .    B  ADDR  00F8H.0   A   
SPI0CN0_SPIF. . . . . . . . . . . . . .    B  ADDR  00F8H.7   A   
SPI0CN0_TXNF. . . . . . . . . . . . . .    B  ADDR  00F8H.1   A   
SPI0CN0_WCOL. . . . . . . . . . . . . .    B  ADDR  00F8H.6   A   
SPI0DAT . . . . . . . . . . . . . . . .    D  ADDR  00A3H     A   
SPI0FCN0. . . . . . . . . . . . . . . .    D  ADDR  009AH     A   
SPI0FCN1. . . . . . . . . . . . . . . .    D  ADDR  009BH     A   
SPI0FCT . . . . . . . . . . . . . . . .    D  ADDR  00F7H     A   
TCON. . . . . . . . . . . . . . . . . .    D  ADDR  0088H     A   
TCON_IE0. . . . . . . . . . . . . . . .    B  ADDR  0088H.1   A   
TCON_IE1. . . . . . . . . . . . . . . .    B  ADDR  0088H.3   A   
TCON_IT0. . . . . . . . . . . . . . . .    B  ADDR  0088H.0   A   
TCON_IT1. . . . . . . . . . . . . . . .    B  ADDR  0088H.2   A   
TCON_TF0. . . . . . . . . . . . . . . .    B  ADDR  0088H.5   A   
TCON_TF1. . . . . . . . . . . . . . . .    B  ADDR  0088H.7   A   
TCON_TR0. . . . . . . . . . . . . . . .    B  ADDR  0088H.4   A   
TCON_TR1. . . . . . . . . . . . . . . .    B  ADDR  0088H.6   A   
TH0 . . . . . . . . . . . . . . . . . .    D  ADDR  008CH     A   
TH1 . . . . . . . . . . . . . . . . . .    D  ADDR  008DH     A   
TL0 . . . . . . . . . . . . . . . . . .    D  ADDR  008AH     A   
TL1 . . . . . . . . . . . . . . . . . .    D  ADDR  008BH     A   
TMOD. . . . . . . . . . . . . . . . . .    D  ADDR  0089H     A   
TMR2. . . . . . . . . . . . . . . . . .    D  ADDR  00CCH     A   
TMR2CN0 . . . . . . . . . . . . . . . .    D  ADDR  00C8H     A   
TMR2CN0_T2SPLIT . . . . . . . . . . . .    B  ADDR  00C8H.3   A   
TMR2CN0_T2XCLK0 . . . . . . . . . . . .    B  ADDR  00C8H.0   A   
TMR2CN0_T2XCLK1 . . . . . . . . . . . .    B  ADDR  00C8H.1   A   
TMR2CN0_TF2CEN. . . . . . . . . . . . .    B  ADDR  00C8H.4   A   
TMR2CN0_TF2H. . . . . . . . . . . . . .    B  ADDR  00C8H.7   A   
TMR2CN0_TF2L. . . . . . . . . . . . . .    B  ADDR  00C8H.6   A   
TMR2CN0_TF2LEN. . . . . . . . . . . . .    B  ADDR  00C8H.5   A   
TMR2CN0_TR2 . . . . . . . . . . . . . .    B  ADDR  00C8H.2   A   
TMR2CN1 . . . . . . . . . . . . . . . .    D  ADDR  00FDH     A   
TMR2H . . . . . . . . . . . . . . . . .    D  ADDR  00CDH     A   
TMR2L . . . . . . . . . . . . . . . . .    D  ADDR  00CCH     A   
TMR2RL. . . . . . . . . . . . . . . . .    D  ADDR  00CAH     A   
TMR2RLH . . . . . . . . . . . . . . . .    D  ADDR  00CBH     A   
TMR2RLL . . . . . . . . . . . . . . . .    D  ADDR  00CAH     A   
TMR3. . . . . . . . . . . . . . . . . .    D  ADDR  0094H     A   
TMR3CN0 . . . . . . . . . . . . . . . .    D  ADDR  0091H     A   
TMR3CN1 . . . . . . . . . . . . . . . .    D  ADDR  00FEH     A   
TMR3H . . . . . . . . . . . . . . . . .    D  ADDR  0095H     A   
AX51 MACRO ASSEMBLER  EFM8UB1_BLINKY                                                        04/22/20 09:50:33 PAGE    16

TMR3L . . . . . . . . . . . . . . . . .    D  ADDR  0094H     A   
TMR3RL. . . . . . . . . . . . . . . . .    D  ADDR  0092H     A   
TMR3RLH . . . . . . . . . . . . . . . .    D  ADDR  0093H     A   
TMR3RLL . . . . . . . . . . . . . . . .    D  ADDR  0092H     A   
TMR4. . . . . . . . . . . . . . . . . .    D  ADDR  00A4H     A   
TMR4CN0 . . . . . . . . . . . . . . . .    D  ADDR  0098H     A   
TMR4CN0_T4SPLIT . . . . . . . . . . . .    B  ADDR  0098H.3   A   
TMR4CN0_T4XCLK0 . . . . . . . . . . . .    B  ADDR  0098H.0   A   
TMR4CN0_T4XCLK1 . . . . . . . . . . . .    B  ADDR  0098H.1   A   
TMR4CN0_TF4CEN. . . . . . . . . . . . .    B  ADDR  0098H.4   A   
TMR4CN0_TF4H. . . . . . . . . . . . . .    B  ADDR  0098H.7   A   
TMR4CN0_TF4L. . . . . . . . . . . . . .    B  ADDR  0098H.6   A   
TMR4CN0_TF4LEN. . . . . . . . . . . . .    B  ADDR  0098H.5   A   
TMR4CN0_TR4 . . . . . . . . . . . . . .    B  ADDR  0098H.2   A   
TMR4CN1 . . . . . . . . . . . . . . . .    D  ADDR  00FFH     A   
TMR4H . . . . . . . . . . . . . . . . .    D  ADDR  00A5H     A   
TMR4L . . . . . . . . . . . . . . . . .    D  ADDR  00A4H     A   
TMR4RL. . . . . . . . . . . . . . . . .    D  ADDR  00A2H     A   
TMR4RLH . . . . . . . . . . . . . . . .    D  ADDR  00A3H     A   
TMR4RLL . . . . . . . . . . . . . . . .    D  ADDR  00A2H     A   
UART1FCN0 . . . . . . . . . . . . . . .    D  ADDR  009DH     A   
UART1FCN1 . . . . . . . . . . . . . . .    D  ADDR  00D8H     A   
UART1FCN1_RFRQ. . . . . . . . . . . . .    B  ADDR  00D8H.3   A   
UART1FCN1_RIE . . . . . . . . . . . . .    B  ADDR  00D8H.0   A   
UART1FCN1_RXTO0 . . . . . . . . . . . .    B  ADDR  00D8H.1   A   
UART1FCN1_RXTO1 . . . . . . . . . . . .    B  ADDR  00D8H.2   A   
UART1FCN1_TFRQ. . . . . . . . . . . . .    B  ADDR  00D8H.7   A   
UART1FCN1_TIE . . . . . . . . . . . . .    B  ADDR  00D8H.4   A   
UART1FCN1_TXHOLD. . . . . . . . . . . .    B  ADDR  00D8H.5   A   
UART1FCN1_TXNF. . . . . . . . . . . . .    B  ADDR  00D8H.6   A   
UART1FCT. . . . . . . . . . . . . . . .    D  ADDR  00FAH     A   
UART1LIN. . . . . . . . . . . . . . . .    D  ADDR  009EH     A   
USB0ADR . . . . . . . . . . . . . . . .    D  ADDR  00AEH     A   
USB0AEC . . . . . . . . . . . . . . . .    D  ADDR  00B2H     A   
USB0CDCF. . . . . . . . . . . . . . . .    D  ADDR  00B6H     A   
USB0CDCN. . . . . . . . . . . . . . . .    D  ADDR  00BEH     A   
USB0CDSTA . . . . . . . . . . . . . . .    D  ADDR  00BFH     A   
USB0CF. . . . . . . . . . . . . . . . .    D  ADDR  00B5H     A   
USB0DAT . . . . . . . . . . . . . . . .    D  ADDR  00AFH     A   
USB0XCN . . . . . . . . . . . . . . . .    D  ADDR  00B3H     A   
VDM0CN. . . . . . . . . . . . . . . . .    D  ADDR  00FFH     A   
WDTCN . . . . . . . . . . . . . . . . .    D  ADDR  0097H     A   
XBR0. . . . . . . . . . . . . . . . . .    D  ADDR  00E1H     A   
XBR1. . . . . . . . . . . . . . . . . .    D  ADDR  00E2H     A   
XBR2. . . . . . . . . . . . . . . . . .    D  ADDR  00E3H     A   


REGISTER BANK(S) USED: 0 


ASSEMBLY COMPLETE.  0 WARNING(S), 0 ERROR(S).
